(dp0
Vengine
p1
Vxelatex
p2
sVpackages
p3
c__builtin__
set
p4
((lp5
Vamsmath
p6
aVhyperref
p7
aVlistings
p8
atp9
Rp10
sVfiles_with_guttermarks
p11
g4
((lp12
S'DevonReview.tex'
p13
aV/usr/local/texlive/2015/texmf-dist/tex/latex/algorithms/algorithm.sty
p14
aV/Users/spencerwoody/Desktop/Classes/SDS385/PeerReviews/Devon/DevonReview.tex
p15
aV/Users/spencerwoody/Desktop/Classes/SDS385/PeerReviews/Devon/./DevonReview.tex
p16
atp17
Rp18
sVsynctex
p19
I01
s.