(dp0
Vengine
p1
Vxelatex
p2
sVpackages
p3
c__builtin__
set
p4
((lp5
Vlastpage
p6
aVcolor
p7
aVlistings
p8
aVextramarks
p9
aVamsmath
p10
aVfancyhdr
p11
aVenumerate
p12
aVgraphicx
p13
aVamssymb
p14
atp15
Rp16
sVfiles_with_guttermarks
p17
g4
((lp18
V/Users/spencerwoody/Desktop/Classes/SDS385/Exercises01/./exercises01.tex
p19
aS'exercises01.tex'
p20
aV/Users/spencerwoody/Desktop/Classes/SDS385/Exercises01/exercises01.tex
p21
atp22
Rp23
sVsynctex
p24
I01
s.