(dp0
Vengine
p1
Vxelatex
p2
sVpackages
p3
c__builtin__
set
p4
((lp5
Vfancyhdr
p6
aVcolor
p7
aVlistings
p8
aVextramarks
p9
aVlastpage
p10
aVenumerate
p11
aVgraphicx
p12
atp13
Rp14
sVfiles_with_guttermarks
p15
g4
((lp16
V/Users/spencerwoody/Desktop/Classes/SDS385/Exercises01/./exercises01.tex
p17
aS'exercises01.tex'
p18
aV/Users/spencerwoody/Desktop/Classes/SDS385/Exercises01/exercises01.tex
p19
atp20
Rp21
sVsynctex
p22
I01
s.