(dp0
Vengine
p1
Vxelatex
p2
sVpackages
p3
c__builtin__
set
p4
((lp5
Valgorithm
p6
aVfancyhdr
p7
aVcolor
p8
aVlistings
p9
aVextramarks
p10
aVlastpage
p11
aValgpseudocode
p12
aVamsmath
p13
aVenumerate
p14
aVgraphicx
p15
aVamssymb
p16
atp17
Rp18
sVfiles_with_guttermarks
p19
g4
((lp20
V/Users/spencerwoody/Desktop/Classes/SDS385/Exercises01/./exercises01.tex
p21
aS'exercises01.tex'
p22
aV/Users/spencerwoody/Desktop/Classes/SDS385/Exercises01/exercises01.tex
p23
atp24
Rp25
sVsynctex
p26
I01
s.